target datalayout = "e-m:e-p270:32:32-p271:32:32-p272:64:64-i64:64-i128:128-f80:128-n8:16:32:64-S128"
target triple = "x86_64-pc-linux-gnu"

%struct.H5D_t = type { %struct.H5O_loc_t, %struct.H5G_name_t, ptr }
%struct.H5O_loc_t = type { ptr, i64, i8 }
%struct.H5G_name_t = type { ptr, ptr, i32 }
%struct.H5D_shared_t = type { i64, i8, i64, ptr, ptr, i64, i64, %struct.H5D_dcpl_cache_t, %struct.H5O_layout_t, i8, i32, [32 x i64], [32 x i64], [32 x i64], %struct.anon.6, %struct.H5D_append_flush_t, ptr, ptr }
%struct.H5D_dcpl_cache_t = type { %struct.H5O_fill_t, %struct.H5O_pline_t, %struct.H5O_efl_t }
%struct.H5O_fill_t = type { %struct.H5O_shared_t, i32, ptr, i64, ptr, i32, i32, i8 }
%struct.H5O_shared_t = type { i32, ptr, i32, %union.anon.5 }
%union.anon.5 = type { %struct.H5O_mesg_loc_t }
%struct.H5O_mesg_loc_t = type { i32, i64 }
%struct.H5O_pline_t = type { %struct.H5O_shared_t, i32, i64, i64, ptr }
%struct.H5O_efl_t = type { i64, i64, i64, ptr }
%struct.H5O_layout_t = type { i32, i32, ptr, %union.anon, %struct.H5O_storage_t }
%union.anon = type { %struct.H5O_layout_chunk_t }
%struct.H5O_layout_chunk_t = type { i32, i8, i32, [33 x i32], i32, i32, i64, i64, [33 x i64], [33 x i64], [33 x i64], [33 x i64], %union.anon.0 }
%union.anon.0 = type { %struct.H5O_layout_chunk_earray_t }
%struct.H5O_layout_chunk_earray_t = type { %struct.anon.1, i32, [33 x i32], [33 x i64], [33 x i64] }
%struct.anon.1 = type { i8, i8, i8, i8, i8 }
%struct.H5O_storage_t = type { i32, %union.anon.3 }
%union.anon.3 = type { %struct.H5O_storage_virtual_t }
%struct.H5O_storage_virtual_t = type { %struct.H5HG_t, i64, ptr, i64, [32 x i64], i32, i64, i64, i64, i8 }
%struct.H5HG_t = type { i64, i64 }
%struct.anon.6 = type { %struct.H5D_rdcdc_t, %struct.H5D_rdcc_t }
%struct.H5D_rdcdc_t = type { ptr, i64, i64, i64, i8 }
%struct.H5D_rdcc_t = type { %struct.anon.7, i64, i64, double, ptr, ptr, ptr, i64, i32, %struct.H5D_chunk_cached_t, ptr, ptr, ptr, ptr, [32 x i64], [32 x i64], [32 x i32] }
%struct.anon.7 = type { i32, i32, i32, i32 }
%struct.H5D_chunk_cached_t = type { i8, [33 x i64], i64, i32, i64, i32 }
%struct.H5D_append_flush_t = type { i32, [32 x i64], ptr, ptr }

@H5D_init_g = external global i8, align 1
@H5_libterm_g = external global i8, align 1
@.str.1 = private unnamed_addr constant [104 x i8] c"generated/home/dtcxzyw/WorkSpace/Projects/compilers/llvm-opt-benchmark/bench/hdf5/hdf5/src/H5Dvirtual.c\00", align 1
@H5E_FUNC_g = external global i64, align 8
@H5E_CANTINIT_g = external global i64, align 8
@.str.2 = private unnamed_addr constant [32 x i8] c"interface initialization failed\00", align 1
@H5E_DATASET_g = external global i64, align 8
@H5E_CANTGET_g = external global i64, align 8
@H5E_ARGS_g = external global i64, align 8
@H5E_BADVALUE_g = external global i64, align 8
@.str.15 = private unnamed_addr constant [35 x i8] c"unable to get number of dimensions\00", align 1
@__func__.H5D_virtual_check_min_dims = private unnamed_addr constant [27 x i8] c"H5D_virtual_check_min_dims\00", align 1
@.str.17 = private unnamed_addr constant [25 x i8] c"can't get VDS dimensions\00", align 1
@.str.18 = private unnamed_addr constant [96 x i8] c"virtual dataset dimensions not large enough to contain all limited dimensions in all selections\00", align 1

; Function Attrs: nounwind uwtable
define i32 @H5D_virtual_check_min_dims(ptr noundef %0) #0 {
  %2 = alloca ptr, align 8
  %3 = alloca i32, align 4
  %4 = alloca [32 x i64], align 16
  %5 = alloca i32, align 4
  %6 = alloca i32, align 4
  %7 = alloca i8, align 1
  store ptr %0, ptr %2, align 8, !tbaa !8
  call void @llvm.lifetime.start.p0(i64 4, ptr %3) #10
  call void @llvm.lifetime.start.p0(i64 256, ptr %4) #10
  call void @llvm.lifetime.start.p0(i64 4, ptr %5) #10
  call void @llvm.lifetime.start.p0(i64 4, ptr %6) #10
  store i32 0, ptr %6, align 4, !tbaa !12
  call void @llvm.lifetime.start.p0(i64 1, ptr %7) #10
  store i8 0, ptr %7, align 1, !tbaa !14
  %8 = load i8, ptr @H5D_init_g, align 1, !tbaa !14, !range !16, !noundef !17
  %9 = trunc i8 %8 to i1
  br i1 %9, label %14, label %10

10:                                               ; preds = %1
  %11 = load i8, ptr @H5_libterm_g, align 1, !tbaa !14, !range !16, !noundef !17
  %12 = trunc i8 %11 to i1
  %13 = xor i1 %12, true
  br label %14

14:                                               ; preds = %10, %1
  %15 = phi i1 [ false, %1 ], [ %13, %10 ]
  %16 = xor i1 %15, true
  %17 = xor i1 %16, true
  %18 = zext i1 %17 to i32
  %19 = sext i32 %18 to i64
  %20 = call i64 @llvm.expect.i64(i64 %19, i64 0)
  %21 = icmp ne i64 %20, 0
  br i1 %21, label %22, label %45

22:                                               ; preds = %14
  store i8 1, ptr @H5D_init_g, align 1, !tbaa !14
  %23 = call i32 @H5D__init_package()
  %24 = icmp slt i32 %23, 0
  br i1 %24, label %25, label %44

25:                                               ; preds = %22
  store i8 0, ptr @H5D_init_g, align 1, !tbaa !14
  br label %26

26:                                               ; preds = %25
  br label %27

27:                                               ; preds = %26
  br label %28

28:                                               ; preds = %27
  %29 = load i64, ptr @H5E_FUNC_g, align 8, !tbaa !10
  %30 = load i64, ptr @H5E_CANTINIT_g, align 8, !tbaa !10
  %31 = call i32 (ptr, ptr, i32, i64, i64, ptr, ...) @H5E_printf_stack(ptr noundef @.str.1, ptr noundef @__func__.H5D_virtual_check_min_dims, i32 noundef 359, i64 noundef %29, i64 noundef %30, ptr noundef @.str.2)
  br label %32

32:                                               ; preds = %28
  br label %33

33:                                               ; preds = %32
  store i8 1, ptr %7, align 1, !tbaa !14
  %34 = load i8, ptr %7, align 1, !tbaa !14, !range !16, !noundef !17
  %35 = trunc i8 %34 to i1
  %36 = zext i1 %35 to i8
  store i8 %36, ptr %7, align 1, !tbaa !14
  br label %37

37:                                               ; preds = %33
  br label %38

38:                                               ; preds = %37
  br label %39

39:                                               ; preds = %38
  store i32 -1, ptr %6, align 4, !tbaa !12
  br label %161

40:                                               ; No predecessors!
  br label %41

41:                                               ; preds = %40
  br label %42

42:                                               ; preds = %41
  br label %43

43:                                               ; preds = %42
  br label %44

44:                                               ; preds = %43, %22
  br label %45

45:                                               ; preds = %44, %14
  %46 = load i8, ptr @H5D_init_g, align 1, !tbaa !14, !range !16, !noundef !17
  %47 = trunc i8 %46 to i1
  br i1 %47, label %52, label %48

48:                                               ; preds = %45
  %49 = load i8, ptr @H5_libterm_g, align 1, !tbaa !14, !range !16, !noundef !17
  %50 = trunc i8 %49 to i1
  %51 = xor i1 %50, true
  br label %52

52:                                               ; preds = %48, %45
  %53 = phi i1 [ true, %45 ], [ %51, %48 ]
  %54 = xor i1 %53, true
  %55 = xor i1 %54, true
  %56 = zext i1 %55 to i32
  %57 = sext i32 %56 to i64
  %58 = call i64 @llvm.expect.i64(i64 %57, i64 1)
  %59 = icmp ne i64 %58, 0
  br i1 %59, label %60, label %162

60:                                               ; preds = %52
  %61 = load ptr, ptr %2, align 8, !tbaa !8
  %62 = getelementptr inbounds nuw %struct.H5D_t, ptr %61, i32 0, i32 2
  %63 = load ptr, ptr %62, align 8, !tbaa !18
  %64 = getelementptr inbounds nuw %struct.H5D_shared_t, ptr %63, i32 0, i32 4
  %65 = load ptr, ptr %64, align 8, !tbaa !38
  %66 = call i32 @H5S_get_simple_extent_ndims(ptr noundef %65)
  store i32 %66, ptr %3, align 4, !tbaa !12
  %67 = icmp slt i32 %66, 0
  br i1 %67, label %68, label %87

68:                                               ; preds = %60
  br label %69

69:                                               ; preds = %68
  br label %70

70:                                               ; preds = %69
  br label %71

71:                                               ; preds = %70
  %72 = load i64, ptr @H5E_DATASET_g, align 8, !tbaa !10
  %73 = load i64, ptr @H5E_CANTGET_g, align 8, !tbaa !10
  %74 = call i32 (ptr, ptr, i32, i64, i64, ptr, ...) @H5E_printf_stack(ptr noundef @.str.1, ptr noundef @__func__.H5D_virtual_check_min_dims, i32 noundef 367, i64 noundef %72, i64 noundef %73, ptr noundef @.str.15)
  br label %75

75:                                               ; preds = %71
  br label %76

76:                                               ; preds = %75
  store i8 1, ptr %7, align 1, !tbaa !14
  %77 = load i8, ptr %7, align 1, !tbaa !14, !range !16, !noundef !17
  %78 = trunc i8 %77 to i1
  %79 = zext i1 %78 to i8
  store i8 %79, ptr %7, align 1, !tbaa !14
  br label %80

80:                                               ; preds = %76
  br label %81

81:                                               ; preds = %80
  br label %82

82:                                               ; preds = %81
  store i32 -1, ptr %6, align 4, !tbaa !12
  br label %161

83:                                               ; No predecessors!
  br label %84

84:                                               ; preds = %83
  br label %85

85:                                               ; preds = %84
  br label %86

86:                                               ; preds = %85
  br label %87

87:                                               ; preds = %86, %60
  %88 = load ptr, ptr %2, align 8, !tbaa !8
  %89 = getelementptr inbounds nuw %struct.H5D_t, ptr %88, i32 0, i32 2
  %90 = load ptr, ptr %89, align 8, !tbaa !18
  %91 = getelementptr inbounds nuw %struct.H5D_shared_t, ptr %90, i32 0, i32 4
  %92 = load ptr, ptr %91, align 8, !tbaa !38
  %93 = getelementptr inbounds [32 x i64], ptr %4, i64 0, i64 0
  %94 = call i32 @H5S_get_simple_extent_dims(ptr noundef %92, ptr noundef %93, ptr noundef null)
  %95 = icmp slt i32 %94, 0
  br i1 %95, label %96, label %115

96:                                               ; preds = %87
  br label %97

97:                                               ; preds = %96
  br label %98

98:                                               ; preds = %97
  br label %99

99:                                               ; preds = %98
  %100 = load i64, ptr @H5E_DATASET_g, align 8, !tbaa !10
  %101 = load i64, ptr @H5E_CANTGET_g, align 8, !tbaa !10
  %102 = call i32 (ptr, ptr, i32, i64, i64, ptr, ...) @H5E_printf_stack(ptr noundef @.str.1, ptr noundef @__func__.H5D_virtual_check_min_dims, i32 noundef 371, i64 noundef %100, i64 noundef %101, ptr noundef @.str.17)
  br label %103

103:                                              ; preds = %99
  br label %104

104:                                              ; preds = %103
  store i8 1, ptr %7, align 1, !tbaa !14
  %105 = load i8, ptr %7, align 1, !tbaa !14, !range !16, !noundef !17
  %106 = trunc i8 %105 to i1
  %107 = zext i1 %106 to i8
  store i8 %107, ptr %7, align 1, !tbaa !14
  br label %108

108:                                              ; preds = %104
  br label %109

109:                                              ; preds = %108
  br label %110

110:                                              ; preds = %109
  store i32 -1, ptr %6, align 4, !tbaa !12
  br label %161

111:                                              ; No predecessors!
  br label %112

112:                                              ; preds = %111
  br label %113

113:                                              ; preds = %112
  br label %114

114:                                              ; preds = %113
  br label %115

115:                                              ; preds = %114, %87
  store i32 0, ptr %5, align 4, !tbaa !12
  br label %116

116:                                              ; preds = %157, %115
  %117 = load i32, ptr %5, align 4, !tbaa !12
  %118 = load i32, ptr %3, align 4, !tbaa !12
  %119 = icmp slt i32 %117, %118
  br i1 %119, label %120, label %160

120:                                              ; preds = %116
  %121 = load i32, ptr %5, align 4, !tbaa !12
  %122 = sext i32 %121 to i64
  %123 = getelementptr inbounds [32 x i64], ptr %4, i64 0, i64 %122
  %124 = load i64, ptr %123, align 8, !tbaa !10
  %125 = load ptr, ptr %2, align 8, !tbaa !8
  %126 = getelementptr inbounds nuw %struct.H5D_t, ptr %125, i32 0, i32 2
  %127 = load ptr, ptr %126, align 8, !tbaa !18
  %128 = getelementptr inbounds nuw %struct.H5D_shared_t, ptr %127, i32 0, i32 8
  %129 = getelementptr inbounds nuw %struct.H5O_layout_t, ptr %128, i32 0, i32 4
  %130 = getelementptr inbounds nuw %struct.H5O_storage_t, ptr %129, i32 0, i32 1
  %131 = getelementptr inbounds nuw %struct.H5O_storage_virtual_t, ptr %130, i32 0, i32 4
  %132 = load i32, ptr %5, align 4, !tbaa !12
  %133 = sext i32 %132 to i64
  %134 = getelementptr inbounds [32 x i64], ptr %131, i64 0, i64 %133
  %135 = load i64, ptr %134, align 8, !tbaa !120
  %136 = icmp ult i64 %124, %135
  br i1 %136, label %137, label %156

137:                                              ; preds = %120
  br label %138

138:                                              ; preds = %137
  br label %139

139:                                              ; preds = %138
  br label %140

140:                                              ; preds = %139
  %141 = load i64, ptr @H5E_ARGS_g, align 8, !tbaa !10
  %142 = load i64, ptr @H5E_BADVALUE_g, align 8, !tbaa !10
  %143 = call i32 (ptr, ptr, i32, i64, i64, ptr, ...) @H5E_printf_stack(ptr noundef @.str.1, ptr noundef @__func__.H5D_virtual_check_min_dims, i32 noundef 378, i64 noundef %141, i64 noundef %142, ptr noundef @.str.18)
  br label %144

144:                                              ; preds = %140
  br label %145

145:                                              ; preds = %144
  store i8 1, ptr %7, align 1, !tbaa !14
  %146 = load i8, ptr %7, align 1, !tbaa !14, !range !16, !noundef !17
  %147 = trunc i8 %146 to i1
  %148 = zext i1 %147 to i8
  store i8 %148, ptr %7, align 1, !tbaa !14
  br label %149

149:                                              ; preds = %145
  br label %150

150:                                              ; preds = %149
  br label %151

151:                                              ; preds = %150
  store i32 -1, ptr %6, align 4, !tbaa !12
  br label %161

152:                                              ; No predecessors!
  br label %153

153:                                              ; preds = %152
  br label %154

154:                                              ; preds = %153
  br label %155

155:                                              ; preds = %154
  br label %156

156:                                              ; preds = %155, %120
  br label %157

157:                                              ; preds = %156
  %158 = load i32, ptr %5, align 4, !tbaa !12
  %159 = add nsw i32 %158, 1
  store i32 %159, ptr %5, align 4, !tbaa !12
  br label %116, !llvm.loop !131

160:                                              ; preds = %116
  br label %161

161:                                              ; preds = %160, %151, %110, %82, %39
  br label %162

162:                                              ; preds = %161, %52
  %163 = load i32, ptr %6, align 4, !tbaa !12
  call void @llvm.lifetime.end.p0(i64 1, ptr %7) #10
  call void @llvm.lifetime.end.p0(i64 4, ptr %6) #10
  call void @llvm.lifetime.end.p0(i64 4, ptr %5) #10
  call void @llvm.lifetime.end.p0(i64 256, ptr %4) #10
  call void @llvm.lifetime.end.p0(i64 4, ptr %3) #10
  ret i32 %163
}