; Function Attrs: nounwind uwtable
define range(i32 -1, 1) i32 @H5D_virtual_check_min_dims(ptr noundef readonly captures(none) %0) local_unnamed_addr #0 {
  %2 = alloca [32 x i64], align 16
  call void @llvm.lifetime.start.p0(i64 256, ptr nonnull %2) #14
  %3 = load i8, ptr @H5D_init_g, align 1, !tbaa !3, !range !7, !noundef !8
  %4 = trunc nuw i8 %3 to i1
  %5 = load i8, ptr @H5_libterm_g, align 1, !range !7
  %6 = trunc nuw i8 %5 to i1
  %7 = select i1 %4, i1 true, i1 %6
  br i1 %7, label %15, label %8, !prof !9

8:                                                ; preds = %1
  store i8 1, ptr @H5D_init_g, align 1, !tbaa !3
  %9 = tail call i32 @H5D__init_package() #14
  %10 = icmp slt i32 %9, 0
  br i1 %10, label %11, label %._crit_edge

._crit_edge:                                      ; preds = %8
  %.pre = load i8, ptr @H5D_init_g, align 1, !tbaa !3, !range !7
  %.pre16 = load i8, ptr @H5_libterm_g, align 1, !range !7
  %.pre17 = trunc nuw i8 %.pre to i1
  %.pre18 = trunc nuw i8 %.pre16 to i1
  br label %15

11:                                               ; preds = %8
  store i8 0, ptr @H5D_init_g, align 1, !tbaa !3
  %12 = load i64, ptr @H5E_FUNC_g, align 8, !tbaa !24
  %13 = load i64, ptr @H5E_CANTINIT_g, align 8, !tbaa !24
  %14 = tail call i32 (ptr, ptr, i32, i64, i64, ptr, ...) @H5E_printf_stack(ptr noundef nonnull @.str.1, ptr noundef nonnull @__func__.H5D_virtual_check_min_dims, i32 noundef 359, i64 noundef %12, i64 noundef %13, ptr noundef nonnull @.str.2) #14
  br label %.loopexit

15:                                               ; preds = %._crit_edge, %1
  %.pre-phi19 = phi i1 [ %.pre18, %._crit_edge ], [ %6, %1 ]
  %.pre-phi = phi i1 [ %.pre17, %._crit_edge ], [ %4, %1 ]
  %16 = xor i1 %.pre-phi19, true
  %17 = select i1 %.pre-phi, i1 true, i1 %16
  br i1 %17, label %18, label %.loopexit, !prof !9

18:                                               ; preds = %15
  %19 = getelementptr inbounds nuw i8, ptr %0, i64 48
  %20 = load ptr, ptr %19, align 8, !tbaa !10
  %21 = getelementptr inbounds nuw i8, ptr %20, i64 32
  %22 = load ptr, ptr %21, align 8, !tbaa !36
  %23 = tail call i32 @H5S_get_simple_extent_ndims(ptr noundef %22) #14
  %24 = icmp slt i32 %23, 0
  br i1 %24, label %25, label %29

25:                                               ; preds = %18
  %26 = load i64, ptr @H5E_DATASET_g, align 8, !tbaa !24
  %27 = load i64, ptr @H5E_CANTGET_g, align 8, !tbaa !24
  %28 = tail call i32 (ptr, ptr, i32, i64, i64, ptr, ...) @H5E_printf_stack(ptr noundef nonnull @.str.1, ptr noundef nonnull @__func__.H5D_virtual_check_min_dims, i32 noundef 367, i64 noundef %26, i64 noundef %27, ptr noundef nonnull @.str.15) #14
  br label %.loopexit

29:                                               ; preds = %18
  %30 = load ptr, ptr %19, align 8, !tbaa !10
  %31 = getelementptr inbounds nuw i8, ptr %30, i64 32
  %32 = load ptr, ptr %31, align 8, !tbaa !36
  %33 = call i32 @H5S_get_simple_extent_dims(ptr noundef %32, ptr noundef nonnull %2, ptr noundef null) #14
  %34 = icmp slt i32 %33, 0
  br i1 %34, label %37, label %.preheader

.preheader:                                       ; preds = %29
  %.not = icmp eq i32 %23, 0
  br i1 %.not, label %.loopexit, label %.lr.ph

.lr.ph:                                           ; preds = %.preheader
  %35 = load ptr, ptr %19, align 8, !tbaa !10
  %36 = getelementptr inbounds nuw i8, ptr %35, i64 2208
  %wide.trip.count = zext nneg i32 %23 to i64
  br label %42

37:                                               ; preds = %29
  %38 = load i64, ptr @H5E_DATASET_g, align 8, !tbaa !24
  %39 = load i64, ptr @H5E_CANTGET_g, align 8, !tbaa !24
  %40 = call i32 (ptr, ptr, i32, i64, i64, ptr, ...) @H5E_printf_stack(ptr noundef nonnull @.str.1, ptr noundef nonnull @__func__.H5D_virtual_check_min_dims, i32 noundef 371, i64 noundef %38, i64 noundef %39, ptr noundef nonnull @.str.17) #14
  br label %.loopexit

41:                                               ; preds = %42
  %indvars.iv.next = add nuw nsw i64 %indvars.iv, 1
  %exitcond.not = icmp eq i64 %indvars.iv.next, %wide.trip.count
  br i1 %exitcond.not, label %.loopexit, label %42, !llvm.loop !117

42:                                               ; preds = %.lr.ph, %41
  %indvars.iv = phi i64 [ 0, %.lr.ph ], [ %indvars.iv.next, %41 ]
  %43 = getelementptr inbounds nuw [32 x i64], ptr %2, i64 0, i64 %indvars.iv
  %44 = load i64, ptr %43, align 8, !tbaa !24
  %45 = getelementptr inbounds nuw [32 x i64], ptr %36, i64 0, i64 %indvars.iv
  %46 = load i64, ptr %45, align 8, !tbaa !108
  %47 = icmp ult i64 %44, %46
  br i1 %47, label %48, label %41

48:                                               ; preds = %42
  %49 = load i64, ptr @H5E_ARGS_g, align 8, !tbaa !24
  %50 = load i64, ptr @H5E_BADVALUE_g, align 8, !tbaa !24
  %51 = call i32 (ptr, ptr, i32, i64, i64, ptr, ...) @H5E_printf_stack(ptr noundef nonnull @.str.1, ptr noundef nonnull @__func__.H5D_virtual_check_min_dims, i32 noundef 378, i64 noundef %49, i64 noundef %50, ptr noundef nonnull @.str.18) #14
  br label %.loopexit

.loopexit:                                        ; preds = %41, %.preheader, %11, %25, %37, %48, %15
  %.0 = phi i32 [ -1, %11 ], [ -1, %25 ], [ -1, %37 ], [ -1, %48 ], [ 0, %15 ], [ 0, %.preheader ], [ 0, %41 ]
  call void @llvm.lifetime.end.p0(i64 256, ptr nonnull %2) #14
  ret i32 %.0
}